target datalayout = "e-m:e-p270:32:32-p271:32:32-p272:64:64-i64:64-i128:128-f80:128-n8:16:32:64-S128"
target triple = "x86_64-pc-linux-gnu"

; Function Attrs: inlinehint nounwind uwtable
define internal i32 @VP8Clip8(i32 noundef %0) #3 {
  %2 = alloca i32, align 4
  store i32 %0, ptr %2, align 4, !tbaa !8
  %3 = load i32, ptr %2, align 4, !tbaa !8
  %4 = and i32 %3, -16384
  %5 = icmp eq i32 %4, 0
  br i1 %5, label %6, label %9

6:                                                ; preds = %1
  %7 = load i32, ptr %2, align 4, !tbaa !8
  %8 = ashr i32 %7, 6
  br label %13

9:                                                ; preds = %1
  %10 = load i32, ptr %2, align 4, !tbaa !8
  %11 = icmp slt i32 %10, 0
  %12 = select i1 %11, i32 0, i32 255
  br label %13

13:                                               ; preds = %9, %6
  %14 = phi i32 [ %8, %6 ], [ %12, %9 ]
  ret i32 %14
}

; Function Attrs: inlinehint nounwind uwtable
define internal i32 @MultHi(i32 noundef %0, i32 noundef %1) #3 {
  %3 = alloca i32, align 4
  %4 = alloca i32, align 4
  store i32 %0, ptr %3, align 4, !tbaa !8
  store i32 %1, ptr %4, align 4, !tbaa !8
  %5 = load i32, ptr %3, align 4, !tbaa !8
  %6 = load i32, ptr %4, align 4, !tbaa !8
  %7 = mul nsw i32 %5, %6
  %8 = ashr i32 %7, 8
  ret i32 %8
}

; Function Attrs: inlinehint nounwind uwtable
define internal i32 @VP8YUVToB(i32 noundef %0, i32 noundef %1) #3 {
  %3 = alloca i32, align 4
  %4 = alloca i32, align 4
  store i32 %0, ptr %3, align 4, !tbaa !8
  store i32 %1, ptr %4, align 4, !tbaa !8
  %5 = load i32, ptr %3, align 4, !tbaa !8
  %6 = call i32 @MultHi(i32 noundef %5, i32 noundef 19077)
  %7 = load i32, ptr %4, align 4, !tbaa !8
  %8 = call i32 @MultHi(i32 noundef %7, i32 noundef 33050)
  %9 = add nsw i32 %6, %8
  %10 = sub nsw i32 %9, 17685
  %11 = call i32 @VP8Clip8(i32 noundef %10)
  ret i32 %11
}

; Function Attrs: inlinehint nounwind uwtable
define internal i32 @VP8YUVToG(i32 noundef %0, i32 noundef %1, i32 noundef %2) #3 {
  %4 = alloca i32, align 4
  %5 = alloca i32, align 4
  %6 = alloca i32, align 4
  store i32 %0, ptr %4, align 4, !tbaa !8
  store i32 %1, ptr %5, align 4, !tbaa !8
  store i32 %2, ptr %6, align 4, !tbaa !8
  %7 = load i32, ptr %4, align 4, !tbaa !8
  %8 = call i32 @MultHi(i32 noundef %7, i32 noundef 19077)
  %9 = load i32, ptr %5, align 4, !tbaa !8
  %10 = call i32 @MultHi(i32 noundef %9, i32 noundef 6419)
  %11 = sub nsw i32 %8, %10
  %12 = load i32, ptr %6, align 4, !tbaa !8
  %13 = call i32 @MultHi(i32 noundef %12, i32 noundef 13320)
  %14 = sub nsw i32 %11, %13
  %15 = add nsw i32 %14, 8708
  %16 = call i32 @VP8Clip8(i32 noundef %15)
  ret i32 %16
}

; Function Attrs: inlinehint nounwind uwtable
define internal i32 @VP8YUVToR(i32 noundef %0, i32 noundef %1) #3 {
  %3 = alloca i32, align 4
  %4 = alloca i32, align 4
  store i32 %0, ptr %3, align 4, !tbaa !8
  store i32 %1, ptr %4, align 4, !tbaa !8
  %5 = load i32, ptr %3, align 4, !tbaa !8
  %6 = call i32 @MultHi(i32 noundef %5, i32 noundef 19077)
  %7 = load i32, ptr %4, align 4, !tbaa !8
  %8 = call i32 @MultHi(i32 noundef %7, i32 noundef 26149)
  %9 = add nsw i32 %6, %8
  %10 = sub nsw i32 %9, 14234
  %11 = call i32 @VP8Clip8(i32 noundef %10)
  ret i32 %11
}

; Function Attrs: inlinehint nounwind uwtable
define internal void @VP8YuvToRgba4444(i32 noundef %0, i32 noundef %1, i32 noundef %2, ptr noundef %3) #3 {
  %5 = alloca i32, align 4
  %6 = alloca i32, align 4
  %7 = alloca i32, align 4
  %8 = alloca ptr, align 8
  %9 = alloca i32, align 4
  %10 = alloca i32, align 4
  %11 = alloca i32, align 4
  %12 = alloca i32, align 4
  %13 = alloca i32, align 4
  store i32 %0, ptr %5, align 4, !tbaa !8
  store i32 %1, ptr %6, align 4, !tbaa !8
  store i32 %2, ptr %7, align 4, !tbaa !8
  store ptr %3, ptr %8, align 8, !tbaa !3
  call void @llvm.lifetime.start.p0(i64 4, ptr %9) #5
  %14 = load i32, ptr %5, align 4, !tbaa !8
  %15 = load i32, ptr %7, align 4, !tbaa !8
  %16 = call i32 @VP8YUVToR(i32 noundef %14, i32 noundef %15)
  store i32 %16, ptr %9, align 4, !tbaa !8
  call void @llvm.lifetime.start.p0(i64 4, ptr %10) #5
  %17 = load i32, ptr %5, align 4, !tbaa !8
  %18 = load i32, ptr %6, align 4, !tbaa !8
  %19 = load i32, ptr %7, align 4, !tbaa !8
  %20 = call i32 @VP8YUVToG(i32 noundef %17, i32 noundef %18, i32 noundef %19)
  store i32 %20, ptr %10, align 4, !tbaa !8
  call void @llvm.lifetime.start.p0(i64 4, ptr %11) #5
  %21 = load i32, ptr %5, align 4, !tbaa !8
  %22 = load i32, ptr %6, align 4, !tbaa !8
  %23 = call i32 @VP8YUVToB(i32 noundef %21, i32 noundef %22)
  store i32 %23, ptr %11, align 4, !tbaa !8
  call void @llvm.lifetime.start.p0(i64 4, ptr %12) #5
  %24 = load i32, ptr %9, align 4, !tbaa !8
  %25 = and i32 %24, 240
  %26 = load i32, ptr %10, align 4, !tbaa !8
  %27 = ashr i32 %26, 4
  %28 = or i32 %25, %27
  store i32 %28, ptr %12, align 4, !tbaa !8
  call void @llvm.lifetime.start.p0(i64 4, ptr %13) #5
  %29 = load i32, ptr %11, align 4, !tbaa !8
  %30 = and i32 %29, 240
  %31 = or i32 %30, 15
  store i32 %31, ptr %13, align 4, !tbaa !8
  %32 = load i32, ptr %12, align 4, !tbaa !8
  %33 = trunc i32 %32 to i8
  %34 = load ptr, ptr %8, align 8, !tbaa !3
  %35 = getelementptr inbounds i8, ptr %34, i64 0
  store i8 %33, ptr %35, align 1, !tbaa !15
  %36 = load i32, ptr %13, align 4, !tbaa !8
  %37 = trunc i32 %36 to i8
  %38 = load ptr, ptr %8, align 8, !tbaa !3
  %39 = getelementptr inbounds i8, ptr %38, i64 1
  store i8 %37, ptr %39, align 1, !tbaa !15
  call void @llvm.lifetime.end.p0(i64 4, ptr %13) #5
  call void @llvm.lifetime.end.p0(i64 4, ptr %12) #5
  call void @llvm.lifetime.end.p0(i64 4, ptr %11) #5
  call void @llvm.lifetime.end.p0(i64 4, ptr %10) #5
  call void @llvm.lifetime.end.p0(i64 4, ptr %9) #5
  ret void
}

; Function Attrs: nounwind uwtable
define internal void @YuvToRgba4444Row(ptr noalias noundef %0, ptr noalias noundef %1, ptr noalias noundef %2, ptr noalias noundef %3, i32 noundef %4) #0 {
  %6 = alloca ptr, align 8
  %7 = alloca ptr, align 8
  %8 = alloca ptr, align 8
  %9 = alloca ptr, align 8
  %10 = alloca i32, align 4
  %11 = alloca ptr, align 8
  store ptr %0, ptr %6, align 8, !tbaa !3
  store ptr %1, ptr %7, align 8, !tbaa !3
  store ptr %2, ptr %8, align 8, !tbaa !3
  store ptr %3, ptr %9, align 8, !tbaa !3
  store i32 %4, ptr %10, align 4, !tbaa !8
  call void @llvm.lifetime.start.p0(i64 8, ptr %11) #5
  %12 = load ptr, ptr %9, align 8, !tbaa !3
  %13 = load i32, ptr %10, align 4, !tbaa !8
  %14 = and i32 %13, -2
  %15 = mul nsw i32 %14, 2
  %16 = sext i32 %15 to i64
  %17 = getelementptr inbounds i8, ptr %12, i64 %16
  store ptr %17, ptr %11, align 8, !tbaa !3
  br label %18

18:                                               ; preds = %22, %5
  %19 = load ptr, ptr %9, align 8, !tbaa !3
  %20 = load ptr, ptr %11, align 8, !tbaa !3
  %21 = icmp ne ptr %19, %20
  br i1 %21, label %22, label %58

22:                                               ; preds = %18
  %23 = load ptr, ptr %6, align 8, !tbaa !3
  %24 = getelementptr inbounds i8, ptr %23, i64 0
  %25 = load i8, ptr %24, align 1, !tbaa !15
  %26 = zext i8 %25 to i32
  %27 = load ptr, ptr %7, align 8, !tbaa !3
  %28 = getelementptr inbounds i8, ptr %27, i64 0
  %29 = load i8, ptr %28, align 1, !tbaa !15
  %30 = zext i8 %29 to i32
  %31 = load ptr, ptr %8, align 8, !tbaa !3
  %32 = getelementptr inbounds i8, ptr %31, i64 0
  %33 = load i8, ptr %32, align 1, !tbaa !15
  %34 = zext i8 %33 to i32
  %35 = load ptr, ptr %9, align 8, !tbaa !3
  call void @VP8YuvToRgba4444(i32 noundef %26, i32 noundef %30, i32 noundef %34, ptr noundef %35)
  %36 = load ptr, ptr %6, align 8, !tbaa !3
  %37 = getelementptr inbounds i8, ptr %36, i64 1
  %38 = load i8, ptr %37, align 1, !tbaa !15
  %39 = zext i8 %38 to i32
  %40 = load ptr, ptr %7, align 8, !tbaa !3
  %41 = getelementptr inbounds i8, ptr %40, i64 0
  %42 = load i8, ptr %41, align 1, !tbaa !15
  %43 = zext i8 %42 to i32
  %44 = load ptr, ptr %8, align 8, !tbaa !3
  %45 = getelementptr inbounds i8, ptr %44, i64 0
  %46 = load i8, ptr %45, align 1, !tbaa !15
  %47 = zext i8 %46 to i32
  %48 = load ptr, ptr %9, align 8, !tbaa !3
  %49 = getelementptr inbounds i8, ptr %48, i64 2
  call void @VP8YuvToRgba4444(i32 noundef %39, i32 noundef %43, i32 noundef %47, ptr noundef %49)
  %50 = load ptr, ptr %6, align 8, !tbaa !3
  %51 = getelementptr inbounds i8, ptr %50, i64 2
  store ptr %51, ptr %6, align 8, !tbaa !3
  %52 = load ptr, ptr %7, align 8, !tbaa !3
  %53 = getelementptr inbounds nuw i8, ptr %52, i32 1
  store ptr %53, ptr %7, align 8, !tbaa !3
  %54 = load ptr, ptr %8, align 8, !tbaa !3
  %55 = getelementptr inbounds nuw i8, ptr %54, i32 1
  store ptr %55, ptr %8, align 8, !tbaa !3
  %56 = load ptr, ptr %9, align 8, !tbaa !3
  %57 = getelementptr inbounds i8, ptr %56, i64 4
  store ptr %57, ptr %9, align 8, !tbaa !3
  br label %18, !llvm.loop !27

58:                                               ; preds = %18
  %59 = load i32, ptr %10, align 4, !tbaa !8
  %60 = and i32 %59, 1
  %61 = icmp ne i32 %60, 0
  br i1 %61, label %62, label %76

62:                                               ; preds = %58
  %63 = load ptr, ptr %6, align 8, !tbaa !3
  %64 = getelementptr inbounds i8, ptr %63, i64 0
  %65 = load i8, ptr %64, align 1, !tbaa !15
  %66 = zext i8 %65 to i32
  %67 = load ptr, ptr %7, align 8, !tbaa !3
  %68 = getelementptr inbounds i8, ptr %67, i64 0
  %69 = load i8, ptr %68, align 1, !tbaa !15
  %70 = zext i8 %69 to i32
  %71 = load ptr, ptr %8, align 8, !tbaa !3
  %72 = getelementptr inbounds i8, ptr %71, i64 0
  %73 = load i8, ptr %72, align 1, !tbaa !15
  %74 = zext i8 %73 to i32
  %75 = load ptr, ptr %9, align 8, !tbaa !3
  call void @VP8YuvToRgba4444(i32 noundef %66, i32 noundef %70, i32 noundef %74, ptr noundef %75)
  br label %76

76:                                               ; preds = %62, %58
  call void @llvm.lifetime.end.p0(i64 8, ptr %11) #5
  ret void
}