; Function Attrs: nofree norecurse nosync nounwind memory(argmem: readwrite) uwtable
define internal void @YuvToRgba4444Row(ptr noalias noundef readonly captures(none) %0, ptr noalias noundef readonly captures(none) %1, ptr noalias noundef readonly captures(none) %2, ptr noalias noundef writeonly captures(address) %3, i32 noundef %4) #2 {
  %6 = shl i32 %4, 1
  %7 = and i32 %6, -4
  %8 = sext i32 %7 to i64
  %9 = getelementptr inbounds i8, ptr %3, i64 %8
  %.not26 = icmp eq i32 %7, 0
  br i1 %.not26, label %._crit_edge, label %.lr.ph

.lr.ph:                                           ; preds = %5, %.lr.ph
  %.030 = phi ptr [ %87, %.lr.ph ], [ %0, %5 ]
  %.02029 = phi ptr [ %88, %.lr.ph ], [ %1, %5 ]
  %.02128 = phi ptr [ %90, %.lr.ph ], [ %3, %5 ]
  %.02227 = phi ptr [ %89, %.lr.ph ], [ %2, %5 ]
  %10 = load i8, ptr %.030, align 1, !tbaa !11
  %11 = zext i8 %10 to i32
  %12 = load i8, ptr %.02029, align 1, !tbaa !11
  %13 = zext i8 %12 to i32
  %14 = load i8, ptr %.02227, align 1, !tbaa !11
  %15 = zext i8 %14 to i32
  %16 = mul nuw nsw i32 %11, 19077
  %17 = lshr i32 %16, 8
  %18 = mul nuw nsw i32 %15, 26149
  %19 = lshr i32 %18, 8
  %20 = add nuw nsw i32 %19, %17
  %21 = add nsw i32 %20, -14234
  %22 = icmp ult i32 %21, 16384
  %23 = lshr i32 %21, 6
  %24 = icmp samesign ult i32 %20, 14234
  %25 = select i1 %24, i32 0, i32 240
  %26 = mul nuw nsw i32 %13, 6419
  %27 = lshr i32 %26, 8
  %28 = mul nuw nsw i32 %15, 13320
  %29 = lshr i32 %28, 8
  %30 = add nuw nsw i32 %29, %27
  %31 = sub nsw i32 %17, %30
  %32 = add nsw i32 %31, 8708
  %33 = icmp ult i32 %32, 16384
  %34 = lshr i32 %32, 10
  %35 = icmp slt i32 %31, -8708
  %36 = select i1 %35, i32 0, i32 15
  %37 = select i1 %33, i32 %34, i32 %36
  %38 = mul nuw nsw i32 %13, 33050
  %39 = lshr i32 %38, 8
  %40 = add nuw nsw i32 %39, %17
  %41 = add nsw i32 %40, -17685
  %42 = icmp ult i32 %41, 16384
  %43 = lshr i32 %41, 6
  %44 = icmp samesign ult i32 %40, 17685
  %45 = select i1 %44, i32 0, i32 240
  %46 = select i1 %42, i32 %43, i32 %45
  %47 = and i32 %23, 240
  %48 = select i1 %22, i32 %47, i32 %25
  %49 = or i32 %48, %37
  %50 = trunc i32 %49 to i8
  store i8 %50, ptr %.02128, align 1, !tbaa !11
  %51 = trunc i32 %46 to i8
  %52 = or i8 %51, 15
  %53 = getelementptr inbounds nuw i8, ptr %.02128, i64 1
  store i8 %52, ptr %53, align 1, !tbaa !11
  %54 = getelementptr inbounds nuw i8, ptr %.030, i64 1
  %55 = load i8, ptr %54, align 1, !tbaa !11
  %56 = zext i8 %55 to i32
  %57 = getelementptr inbounds nuw i8, ptr %.02128, i64 2
  %58 = mul nuw nsw i32 %56, 19077
  %59 = lshr i32 %58, 8
  %60 = add nuw nsw i32 %59, %19
  %61 = add nsw i32 %60, -14234
  %62 = icmp ult i32 %61, 16384
  %63 = lshr i32 %61, 6
  %64 = icmp samesign ult i32 %60, 14234
  %65 = select i1 %64, i32 0, i32 240
  %66 = sub nsw i32 %59, %30
  %67 = add nsw i32 %66, 8708
  %68 = icmp ult i32 %67, 16384
  %69 = lshr i32 %67, 10
  %70 = icmp slt i32 %66, -8708
  %71 = select i1 %70, i32 0, i32 15
  %72 = select i1 %68, i32 %69, i32 %71
  %73 = add nuw nsw i32 %59, %39
  %74 = add nsw i32 %73, -17685
  %75 = icmp ult i32 %74, 16384
  %76 = lshr i32 %74, 6
  %77 = icmp samesign ult i32 %73, 17685
  %78 = select i1 %77, i32 0, i32 240
  %79 = select i1 %75, i32 %76, i32 %78
  %80 = and i32 %63, 240
  %81 = select i1 %62, i32 %80, i32 %65
  %82 = or i32 %81, %72
  %83 = trunc i32 %82 to i8
  store i8 %83, ptr %57, align 1, !tbaa !11
  %84 = trunc i32 %79 to i8
  %85 = or i8 %84, 15
  %86 = getelementptr inbounds nuw i8, ptr %.02128, i64 3
  store i8 %85, ptr %86, align 1, !tbaa !11
  %87 = getelementptr inbounds nuw i8, ptr %.030, i64 2
  %88 = getelementptr inbounds nuw i8, ptr %.02029, i64 1
  %89 = getelementptr inbounds nuw i8, ptr %.02227, i64 1
  %90 = getelementptr inbounds nuw i8, ptr %.02128, i64 4
  %.not = icmp eq ptr %90, %9
  br i1 %.not, label %._crit_edge, label %.lr.ph, !llvm.loop !21

._crit_edge:                                      ; preds = %.lr.ph, %5
  %.022.lcssa = phi ptr [ %2, %5 ], [ %89, %.lr.ph ]
  %.021.lcssa = phi ptr [ %3, %5 ], [ %9, %.lr.ph ]
  %.020.lcssa = phi ptr [ %1, %5 ], [ %88, %.lr.ph ]
  %.0.lcssa = phi ptr [ %0, %5 ], [ %87, %.lr.ph ]
  %91 = and i32 %4, 1
  %.not23 = icmp eq i32 %91, 0
  br i1 %.not23, label %137, label %92

92:                                               ; preds = %._crit_edge
  %93 = load i8, ptr %.0.lcssa, align 1, !tbaa !11
  %94 = zext i8 %93 to i32
  %95 = load i8, ptr %.020.lcssa, align 1, !tbaa !11
  %96 = zext i8 %95 to i32
  %97 = load i8, ptr %.022.lcssa, align 1, !tbaa !11
  %98 = zext i8 %97 to i32
  %99 = mul nuw nsw i32 %94, 19077
  %100 = lshr i32 %99, 8
  %101 = mul nuw nsw i32 %98, 26149
  %102 = lshr i32 %101, 8
  %103 = add nuw nsw i32 %102, %100
  %104 = add nsw i32 %103, -14234
  %105 = icmp ult i32 %104, 16384
  %106 = lshr i32 %104, 6
  %107 = icmp samesign ult i32 %103, 14234
  %108 = select i1 %107, i32 0, i32 240
  %109 = mul nuw nsw i32 %96, 6419
  %110 = lshr i32 %109, 8
  %111 = mul nuw nsw i32 %98, 13320
  %112 = lshr i32 %111, 8
  %113 = add nuw nsw i32 %110, %112
  %114 = sub nsw i32 %100, %113
  %115 = add nsw i32 %114, 8708
  %116 = icmp ult i32 %115, 16384
  %117 = lshr i32 %115, 10
  %118 = icmp slt i32 %114, -8708
  %119 = select i1 %118, i32 0, i32 15
  %120 = select i1 %116, i32 %117, i32 %119
  %121 = mul nuw nsw i32 %96, 33050
  %122 = lshr i32 %121, 8
  %123 = add nuw nsw i32 %122, %100
  %124 = add nsw i32 %123, -17685
  %125 = icmp ult i32 %124, 16384
  %126 = lshr i32 %124, 6
  %127 = icmp samesign ult i32 %123, 17685
  %128 = select i1 %127, i32 0, i32 240
  %129 = select i1 %125, i32 %126, i32 %128
  %130 = and i32 %106, 240
  %131 = select i1 %105, i32 %130, i32 %108
  %132 = or i32 %131, %120
  %133 = trunc i32 %132 to i8
  store i8 %133, ptr %.021.lcssa, align 1, !tbaa !11
  %134 = trunc i32 %129 to i8
  %135 = or i8 %134, 15
  %136 = getelementptr inbounds nuw i8, ptr %.021.lcssa, i64 1
  store i8 %135, ptr %136, align 1, !tbaa !11
  br label %137

137:                                              ; preds = %92, %._crit_edge
  ret void
}